target datalayout = "e-m:e-p270:32:32-p271:32:32-p272:64:64-i64:64-i128:128-f80:128-n8:16:32:64-S128"
target triple = "x86_64-pc-linux-gnu"

@hf_pfcp_bbf_reporting_trigger = internal global i32 0, align 4
@pfcp_bbf_reporting_trigger_vals = internal constant [3 x { i32, [4 x i8], ptr }] [{ i32, [4 x i8], ptr } { i32 0, [4 x i8] zeroinitializer, ptr @.str.2569 }, { i32, [4 x i8], ptr } { i32 1, [4 x i8] zeroinitializer, ptr @.str.2570 }, { i32, [4 x i8], ptr } zeroinitializer], align 16
@.str.2639 = private unnamed_addr constant [8 x i8] c"Unknown\00", align 1
@.str.2654 = private unnamed_addr constant [3 x i8] c"%s\00", align 1

; Function Attrs: null_pointer_is_valid sspstrong uwtable
define internal i32 @dissect_pfcp_enterprise_bbf_reporting_trigger(ptr noundef %0, ptr noundef %1, ptr noundef %2, ptr noundef %3) #0 {
  %5 = alloca ptr, align 8
  %6 = alloca ptr, align 8
  %7 = alloca ptr, align 8
  %8 = alloca ptr, align 8
  %9 = alloca i32, align 4
  %10 = alloca i32, align 4
  store ptr %0, ptr %5, align 8
  store ptr %1, ptr %6, align 8
  store ptr %2, ptr %7, align 8
  store ptr %3, ptr %8, align 8
  call void @llvm.lifetime.start.p0(i64 4, ptr %9) #13
  store i32 0, ptr %9, align 4
  call void @llvm.lifetime.start.p0(i64 4, ptr %10) #13
  %11 = load ptr, ptr %7, align 8
  %12 = load i32, ptr @hf_pfcp_bbf_reporting_trigger, align 4
  %13 = load ptr, ptr %5, align 8
  %14 = load i32, ptr %9, align 4
  %15 = call ptr @proto_tree_add_item_ret_uint(ptr noundef %11, i32 noundef %12, ptr noundef %13, i32 noundef %14, i32 noundef 1, i32 noundef 0, ptr noundef %10)
  %16 = load i32, ptr %9, align 4
  %17 = add i32 %16, 1
  store i32 %17, ptr %9, align 4
  %18 = load ptr, ptr %7, align 8
  %19 = call ptr @proto_tree_get_parent(ptr noundef %18)
  %20 = load i32, ptr %10, align 4
  %21 = call ptr @val_to_str_const(i32 noundef %20, ptr noundef @pfcp_bbf_reporting_trigger_vals, ptr noundef @.str.2639)
  call void (ptr, ptr, ...) @proto_item_append_text(ptr noundef %19, ptr noundef @.str.2654, ptr noundef %21)
  %22 = load i32, ptr %9, align 4
  call void @llvm.lifetime.end.p0(i64 4, ptr %10) #13
  call void @llvm.lifetime.end.p0(i64 4, ptr %9) #13
  ret i32 %22
}